target datalayout = "e-m:e-p270:32:32-p271:32:32-p272:64:64-i64:64-i128:128-f80:128-n8:16:32:64-S128"
target triple = "x86_64-pc-linux-gnu"

@.str.26 = private unnamed_addr constant [3 x i8] c"%s\00", align 1
@.str.27 = private unnamed_addr constant [18 x i8] c"assertion failed!\00", align 1

; Function Attrs: mustprogress uwtable
define internal noundef i32 @_ZL11luaB_assertP9lua_State(ptr noundef %0) #0 {
  %2 = alloca ptr, align 8
  store ptr %0, ptr %2, align 8
  %3 = load ptr, ptr %2, align 8
  call void @_Z13luaL_checkanyP9lua_Statei(ptr noundef %3, i32 noundef 1)
  %4 = load ptr, ptr %2, align 8
  %5 = call noundef i32 @_Z13lua_tobooleanP9lua_Statei(ptr noundef %4, i32 noundef 1)
  %6 = icmp ne i32 %5, 0
  br i1 %6, label %11, label %7

7:                                                ; preds = %1
  %8 = load ptr, ptr %2, align 8
  %9 = load ptr, ptr %2, align 8
  %10 = call noundef ptr @_Z15luaL_optlstringP9lua_StateiPKcPm(ptr noundef %9, i32 noundef 2, ptr noundef @.str.27, ptr noundef null)
  call void (ptr, ptr, ...) @_Z11luaL_errorLP9lua_StatePKcz(ptr noundef %8, ptr noundef @.str.26, ptr noundef %10) #5
  unreachable

11:                                               ; preds = %1
  %12 = load ptr, ptr %2, align 8
  %13 = call noundef i32 @_Z10lua_gettopP9lua_State(ptr noundef %12)
  ret i32 %13
}