; Function Attrs: mustprogress uwtable
define internal noundef i32 @_ZL11luaB_assertP9lua_State(ptr noundef %0) #0 {
  tail call void @_Z13luaL_checkanyP9lua_Statei(ptr noundef %0, i32 noundef 1)
  %2 = tail call noundef i32 @_Z13lua_tobooleanP9lua_Statei(ptr noundef %0, i32 noundef 1)
  %.not = icmp eq i32 %2, 0
  br i1 %.not, label %3, label %5

3:                                                ; preds = %1
  %4 = tail call noundef ptr @_Z15luaL_optlstringP9lua_StateiPKcPm(ptr noundef %0, i32 noundef 2, ptr noundef nonnull @.str.27, ptr noundef null)
  tail call void (ptr, ptr, ...) @_Z11luaL_errorLP9lua_StatePKcz(ptr noundef %0, ptr noundef nonnull @.str.26, ptr noundef %4) #9
  unreachable

5:                                                ; preds = %1
  %6 = tail call noundef i32 @_Z10lua_gettopP9lua_State(ptr noundef %0)
  ret i32 %6
}